; Function Attrs: mustprogress sspstrong uwtable
define noundef zeroext i1 @_ZN4FLAC8Metadata13VorbisComment5Entry9set_fieldEPKcj(ptr nocapture noundef nonnull align 8 dereferenceable(60) %this, ptr noundef %field, i32 noundef %field_length) local_unnamed_addr #0 align 2 {
entry:
  %call = tail call i32 @FLAC__format_vorbiscomment_entry_is_legal(ptr noundef %field, i32 noundef %field_length)
  %tobool.not = icmp eq i32 %call, 0
  br i1 %tobool.not, label %if.then, label %if.end

if.then:                                          ; preds = %entry
  %is_valid_ = getelementptr inbounds i8, ptr %this, i64 8
  store i8 0, ptr %is_valid_, align 8
  br label %return

if.end:                                           ; preds = %entry
  %entry2.i = getelementptr inbounds i8, ptr %this, i64 24
  %0 = load ptr, ptr %entry2.i, align 8
  %cmp.not.i = icmp eq ptr %0, null
  br i1 %cmp.not.i, label %_ZN4FLAC8Metadata13VorbisComment5Entry11clear_entryEv.exit, label %if.then.i

if.then.i:                                        ; preds = %if.end
  %entry_.i = getelementptr inbounds i8, ptr %this, i64 16
  tail call void @free(ptr noundef nonnull %0) #20
  store i32 0, ptr %entry_.i, align 8
  br label %_ZN4FLAC8Metadata13VorbisComment5Entry11clear_entryEv.exit

_ZN4FLAC8Metadata13VorbisComment5Entry11clear_entryEv.exit: ; preds = %if.end, %if.then.i
  %conv = zext i32 %field_length to i64
  %add.i = add nuw nsw i64 %conv, 1
  %call.i.i = tail call noalias noundef ptr @malloc(i64 noundef %add.i) #23
  store ptr %call.i.i, ptr %entry2.i, align 8
  %cmp = icmp eq ptr %call.i.i, null
  br i1 %cmp, label %if.then4, label %if.else

if.then4:                                         ; preds = %_ZN4FLAC8Metadata13VorbisComment5Entry11clear_entryEv.exit
  %is_valid_5 = getelementptr inbounds i8, ptr %this, i64 8
  store i8 0, ptr %is_valid_5, align 8
  br label %return

if.else:                                          ; preds = %_ZN4FLAC8Metadata13VorbisComment5Entry11clear_entryEv.exit
  %entry_ = getelementptr inbounds i8, ptr %this, i64 16
  store i32 %field_length, ptr %entry_, align 8
  tail call void @llvm.memcpy.p0.p0.i64(ptr nonnull align 1 %call.i.i, ptr align 1 %field, i64 %conv, i1 false)
  %arrayidx = getelementptr inbounds i8, ptr %call.i.i, i64 %conv
  store i8 0, ptr %arrayidx, align 1
  tail call void @_ZN4FLAC8Metadata13VorbisComment5Entry11parse_fieldEv(ptr noundef nonnull align 8 dereferenceable(60) %this)
  %is_valid_13.phi.trans.insert = getelementptr inbounds i8, ptr %this, i64 8
  %.pre = load i8, ptr %is_valid_13.phi.trans.insert, align 8
  %1 = and i8 %.pre, 1
  %2 = icmp ne i8 %1, 0
  br label %return

return:                                           ; preds = %if.then4, %if.else, %if.then
  %retval.0 = phi i1 [ false, %if.then ], [ %2, %if.else ], [ false, %if.then4 ]
  ret i1 %retval.0
}